target datalayout = "e-m:e-p270:32:32-p271:32:32-p272:64:64-i64:64-i128:128-f80:128-n8:16:32:64-S128"
target triple = "x86_64-pc-linux-gnu"

%struct.Aig_Obj_t_ = type { %union.anon, ptr, ptr, i64, i32, i32, %union.anon.0 }
%union.anon = type { ptr }
%union.anon.0 = type { ptr }
%struct.Aig_Man_t_ = type { ptr, ptr, ptr, ptr, ptr, ptr, ptr, %struct.Aig_Obj_t_, i32, i32, i32, i32, i32, i32, [7 x i32], i32, ptr, i32, ptr, i32, ptr, i32, i32, i32, ptr, i32, i32, i32, i32, i32, ptr, ptr, i32, ptr, ptr, i32, ptr, ptr, i32, i32, i32, ptr, ptr, ptr, ptr, ptr, ptr, ptr, ptr, ptr, ptr, ptr, ptr, ptr, ptr, i32, ptr, ptr, ptr, ptr, i32, i64, i64, i64, ptr, ptr }
%struct.Vec_Ptr_t_ = type { i32, i32, ptr }
%struct.Vec_Int_t_ = type { i32, i32, ptr }

; Function Attrs: inlinehint nounwind uwtable
define internal i32 @Vec_IntEntry(ptr noundef %0, i32 noundef %1) #3 {
  %3 = alloca ptr, align 8
  %4 = alloca i32, align 4
  store ptr %0, ptr %3, align 8, !tbaa !10
  store i32 %1, ptr %4, align 4, !tbaa !13
  %5 = load ptr, ptr %3, align 8, !tbaa !10
  %6 = getelementptr inbounds nuw %struct.Vec_Int_t_, ptr %5, i32 0, i32 2
  %7 = load ptr, ptr %6, align 8, !tbaa !63
  %8 = load i32, ptr %4, align 4, !tbaa !13
  %9 = sext i32 %8 to i64
  %10 = getelementptr inbounds i32, ptr %7, i64 %9
  %11 = load i32, ptr %10, align 4, !tbaa !13
  ret i32 %11
}

; Function Attrs: inlinehint nounwind uwtable
define internal i32 @Aig_ObjId(ptr noundef %0) #3 {
  %2 = alloca ptr, align 8
  store ptr %0, ptr %2, align 8, !tbaa !27
  %3 = load ptr, ptr %2, align 8, !tbaa !27
  %4 = getelementptr inbounds nuw %struct.Aig_Obj_t_, ptr %3, i32 0, i32 5
  %5 = load i32, ptr %4, align 4, !tbaa !64
  ret i32 %5
}

; Function Attrs: inlinehint nounwind uwtable
define internal i32 @Saig_ManPiNum(ptr noundef %0) #3 {
  %2 = alloca ptr, align 8
  store ptr %0, ptr %2, align 8, !tbaa !8
  %3 = load ptr, ptr %2, align 8, !tbaa !8
  %4 = getelementptr inbounds nuw %struct.Aig_Man_t_, ptr %3, i32 0, i32 9
  %5 = load i32, ptr %4, align 4, !tbaa !47
  ret i32 %5
}

; Function Attrs: inlinehint nounwind uwtable
define internal ptr @Vec_PtrEntry(ptr noundef %0, i32 noundef %1) #3 {
  %3 = alloca ptr, align 8
  %4 = alloca i32, align 4
  store ptr %0, ptr %3, align 8, !tbaa !31
  store i32 %1, ptr %4, align 4, !tbaa !13
  %5 = load ptr, ptr %3, align 8, !tbaa !31
  %6 = getelementptr inbounds nuw %struct.Vec_Ptr_t_, ptr %5, i32 0, i32 2
  %7 = load ptr, ptr %6, align 8, !tbaa !42
  %8 = load i32, ptr %4, align 4, !tbaa !13
  %9 = sext i32 %8 to i64
  %10 = getelementptr inbounds ptr, ptr %7, i64 %9
  %11 = load ptr, ptr %10, align 8, !tbaa !43
  ret ptr %11
}

; Function Attrs: inlinehint nounwind uwtable
define internal i32 @Saig_ManPoNum(ptr noundef %0) #3 {
  %2 = alloca ptr, align 8
  store ptr %0, ptr %2, align 8, !tbaa !8
  %3 = load ptr, ptr %2, align 8, !tbaa !8
  %4 = getelementptr inbounds nuw %struct.Aig_Man_t_, ptr %3, i32 0, i32 10
  %5 = load i32, ptr %4, align 8, !tbaa !44
  ret i32 %5
}

; Function Attrs: inlinehint nounwind uwtable
define internal i32 @Aig_ManRegNum(ptr noundef %0) #3 {
  %2 = alloca ptr, align 8
  store ptr %0, ptr %2, align 8, !tbaa !8
  %3 = load ptr, ptr %2, align 8, !tbaa !8
  %4 = getelementptr inbounds nuw %struct.Aig_Man_t_, ptr %3, i32 0, i32 8
  %5 = load i32, ptr %4, align 8, !tbaa !57
  ret i32 %5
}

; Function Attrs: inlinehint nounwind uwtable
define internal i32 @Llb_ObjBddVar(ptr noundef %0, ptr noundef %1) #3 {
  %3 = alloca ptr, align 8
  %4 = alloca ptr, align 8
  store ptr %0, ptr %3, align 8, !tbaa !10
  store ptr %1, ptr %4, align 8, !tbaa !27
  %5 = load ptr, ptr %3, align 8, !tbaa !10
  %6 = load ptr, ptr %4, align 8, !tbaa !27
  %7 = call i32 @Aig_ObjId(ptr noundef %6)
  %8 = call i32 @Vec_IntEntry(ptr noundef %5, i32 noundef %7)
  ret i32 %8
}

; Function Attrs: inlinehint nounwind uwtable
define internal ptr @Saig_ManLo(ptr noundef %0, i32 noundef %1) #3 {
  %3 = alloca ptr, align 8
  %4 = alloca i32, align 4
  store ptr %0, ptr %3, align 8, !tbaa !8
  store i32 %1, ptr %4, align 4, !tbaa !13
  %5 = load ptr, ptr %3, align 8, !tbaa !8
  %6 = getelementptr inbounds nuw %struct.Aig_Man_t_, ptr %5, i32 0, i32 2
  %7 = load ptr, ptr %6, align 8, !tbaa !15
  %8 = load ptr, ptr %3, align 8, !tbaa !8
  %9 = call i32 @Saig_ManPiNum(ptr noundef %8)
  %10 = load i32, ptr %4, align 4, !tbaa !13
  %11 = add nsw i32 %9, %10
  %12 = call ptr @Vec_PtrEntry(ptr noundef %7, i32 noundef %11)
  ret ptr %12
}

; Function Attrs: inlinehint nounwind uwtable
define internal ptr @Saig_ManLi(ptr noundef %0, i32 noundef %1) #3 {
  %3 = alloca ptr, align 8
  %4 = alloca i32, align 4
  store ptr %0, ptr %3, align 8, !tbaa !8
  store i32 %1, ptr %4, align 4, !tbaa !13
  %5 = load ptr, ptr %3, align 8, !tbaa !8
  %6 = getelementptr inbounds nuw %struct.Aig_Man_t_, ptr %5, i32 0, i32 3
  %7 = load ptr, ptr %6, align 8, !tbaa !30
  %8 = load ptr, ptr %3, align 8, !tbaa !8
  %9 = call i32 @Saig_ManPoNum(ptr noundef %8)
  %10 = load i32, ptr %4, align 4, !tbaa !13
  %11 = add nsw i32 %9, %10
  %12 = call ptr @Vec_PtrEntry(ptr noundef %7, i32 noundef %11)
  ret ptr %12
}

; Function Attrs: inlinehint nounwind uwtable
define internal i32 @Saig_ManRegNum(ptr noundef %0) #3 {
  %2 = alloca ptr, align 8
  store ptr %0, ptr %2, align 8, !tbaa !8
  %3 = load ptr, ptr %2, align 8, !tbaa !8
  %4 = getelementptr inbounds nuw %struct.Aig_Man_t_, ptr %3, i32 0, i32 8
  %5 = load i32, ptr %4, align 8, !tbaa !57
  ret i32 %5
}

; Function Attrs: nounwind uwtable
define void @Llb_Nonlin4SetupVarMap(ptr noundef %0, ptr noundef %1, ptr noundef %2) #0 {
  %4 = alloca ptr, align 8
  %5 = alloca ptr, align 8
  %6 = alloca ptr, align 8
  %7 = alloca ptr, align 8
  %8 = alloca ptr, align 8
  %9 = alloca ptr, align 8
  %10 = alloca ptr, align 8
  %11 = alloca i32, align 4
  store ptr %0, ptr %4, align 8, !tbaa !3
  store ptr %1, ptr %5, align 8, !tbaa !8
  store ptr %2, ptr %6, align 8, !tbaa !10
  call void @llvm.lifetime.start.p0(i64 8, ptr %7) #11
  call void @llvm.lifetime.start.p0(i64 8, ptr %8) #11
  call void @llvm.lifetime.start.p0(i64 8, ptr %9) #11
  call void @llvm.lifetime.start.p0(i64 8, ptr %10) #11
  call void @llvm.lifetime.start.p0(i64 4, ptr %11) #11
  %12 = load ptr, ptr %4, align 8, !tbaa !3
  %13 = call i32 @Cudd_ReadSize(ptr noundef %12)
  %14 = sext i32 %13 to i64
  %15 = mul i64 8, %14
  %16 = call noalias ptr @malloc(i64 noundef %15) #12
  store ptr %16, ptr %7, align 8, !tbaa !78
  %17 = load ptr, ptr %4, align 8, !tbaa !3
  %18 = call i32 @Cudd_ReadSize(ptr noundef %17)
  %19 = sext i32 %18 to i64
  %20 = mul i64 8, %19
  %21 = call noalias ptr @malloc(i64 noundef %20) #12
  store ptr %21, ptr %8, align 8, !tbaa !78
  store i32 0, ptr %11, align 4, !tbaa !13
  br label %22

22:                                               ; preds = %56, %3
  %23 = load i32, ptr %11, align 4, !tbaa !13
  %24 = load ptr, ptr %5, align 8, !tbaa !8
  %25 = call i32 @Saig_ManRegNum(ptr noundef %24)
  %26 = icmp slt i32 %23, %25
  br i1 %26, label %27, label %35

27:                                               ; preds = %22
  %28 = load ptr, ptr %5, align 8, !tbaa !8
  %29 = load i32, ptr %11, align 4, !tbaa !13
  %30 = call ptr @Saig_ManLi(ptr noundef %28, i32 noundef %29)
  store ptr %30, ptr %9, align 8, !tbaa !27
  br i1 true, label %31, label %35

31:                                               ; preds = %27
  %32 = load ptr, ptr %5, align 8, !tbaa !8
  %33 = load i32, ptr %11, align 4, !tbaa !13
  %34 = call ptr @Saig_ManLo(ptr noundef %32, i32 noundef %33)
  store ptr %34, ptr %10, align 8, !tbaa !27
  br label %35

35:                                               ; preds = %31, %27, %22
  %36 = phi i1 [ false, %27 ], [ false, %22 ], [ true, %31 ]
  br i1 %36, label %37, label %59

37:                                               ; preds = %35
  %38 = load ptr, ptr %4, align 8, !tbaa !3
  %39 = load ptr, ptr %6, align 8, !tbaa !10
  %40 = load ptr, ptr %9, align 8, !tbaa !27
  %41 = call i32 @Llb_ObjBddVar(ptr noundef %39, ptr noundef %40)
  %42 = call ptr @Cudd_bddIthVar(ptr noundef %38, i32 noundef %41)
  %43 = load ptr, ptr %7, align 8, !tbaa !78
  %44 = load i32, ptr %11, align 4, !tbaa !13
  %45 = sext i32 %44 to i64
  %46 = getelementptr inbounds ptr, ptr %43, i64 %45
  store ptr %42, ptr %46, align 8, !tbaa !32
  %47 = load ptr, ptr %4, align 8, !tbaa !3
  %48 = load ptr, ptr %6, align 8, !tbaa !10
  %49 = load ptr, ptr %10, align 8, !tbaa !27
  %50 = call i32 @Llb_ObjBddVar(ptr noundef %48, ptr noundef %49)
  %51 = call ptr @Cudd_bddIthVar(ptr noundef %47, i32 noundef %50)
  %52 = load ptr, ptr %8, align 8, !tbaa !78
  %53 = load i32, ptr %11, align 4, !tbaa !13
  %54 = sext i32 %53 to i64
  %55 = getelementptr inbounds ptr, ptr %52, i64 %54
  store ptr %51, ptr %55, align 8, !tbaa !32
  br label %56

56:                                               ; preds = %37
  %57 = load i32, ptr %11, align 4, !tbaa !13
  %58 = add nsw i32 %57, 1
  store i32 %58, ptr %11, align 4, !tbaa !13
  br label %22, !llvm.loop !80

59:                                               ; preds = %35
  %60 = load ptr, ptr %4, align 8, !tbaa !3
  %61 = load ptr, ptr %7, align 8, !tbaa !78
  %62 = load ptr, ptr %8, align 8, !tbaa !78
  %63 = load ptr, ptr %5, align 8, !tbaa !8
  %64 = call i32 @Aig_ManRegNum(ptr noundef %63)
  %65 = call i32 @Cudd_SetVarMap(ptr noundef %60, ptr noundef %61, ptr noundef %62, i32 noundef %64)
  %66 = load ptr, ptr %7, align 8, !tbaa !78
  %67 = icmp ne ptr %66, null
  br i1 %67, label %68, label %70

68:                                               ; preds = %59
  %69 = load ptr, ptr %7, align 8, !tbaa !78
  call void @free(ptr noundef %69) #11
  store ptr null, ptr %7, align 8, !tbaa !78
  br label %71

70:                                               ; preds = %59
  br label %71

71:                                               ; preds = %70, %68
  %72 = load ptr, ptr %8, align 8, !tbaa !78
  %73 = icmp ne ptr %72, null
  br i1 %73, label %74, label %76

74:                                               ; preds = %71
  %75 = load ptr, ptr %8, align 8, !tbaa !78
  call void @free(ptr noundef %75) #11
  store ptr null, ptr %8, align 8, !tbaa !78
  br label %77

76:                                               ; preds = %71
  br label %77

77:                                               ; preds = %76, %74
  call void @llvm.lifetime.end.p0(i64 4, ptr %11) #11
  call void @llvm.lifetime.end.p0(i64 8, ptr %10) #11
  call void @llvm.lifetime.end.p0(i64 8, ptr %9) #11
  call void @llvm.lifetime.end.p0(i64 8, ptr %8) #11
  call void @llvm.lifetime.end.p0(i64 8, ptr %7) #11
  ret void
}