; Function Attrs: nounwind uwtable
define void @Llb_Nonlin4SetupVarMap(ptr noundef %0, ptr noundef readonly captures(none) %1, ptr noundef readonly captures(none) %2) local_unnamed_addr #0 {
  %4 = tail call i32 @Cudd_ReadSize(ptr noundef %0) #18
  %5 = sext i32 %4 to i64
  %6 = shl nsw i64 %5, 3
  %7 = tail call noalias ptr @malloc(i64 noundef %6) #19
  %8 = tail call i32 @Cudd_ReadSize(ptr noundef %0) #18
  %9 = sext i32 %8 to i64
  %10 = shl nsw i64 %9, 3
  %11 = tail call noalias ptr @malloc(i64 noundef %10) #19
  %12 = getelementptr i8, ptr %1, i64 104
  %.val3238 = load i32, ptr %12, align 8, !tbaa !45
  %13 = icmp sgt i32 %.val3238, 0
  br i1 %13, label %.lr.ph, label %.critedge

.lr.ph:                                           ; preds = %3
  %14 = getelementptr i8, ptr %1, i64 24
  %15 = getelementptr i8, ptr %1, i64 112
  %16 = getelementptr i8, ptr %1, i64 16
  %17 = getelementptr i8, ptr %1, i64 108
  %18 = getelementptr i8, ptr %2, i64 8
  br label %19

19:                                               ; preds = %.lr.ph, %19
  %indvars.iv = phi i64 [ 0, %.lr.ph ], [ %indvars.iv.next, %19 ]
  %.val33 = load ptr, ptr %14, align 8, !tbaa !33
  %.val34 = load i32, ptr %15, align 8, !tbaa !34
  %20 = getelementptr i8, ptr %.val33, i64 8
  %.val33.val = load ptr, ptr %20, align 8, !tbaa !25
  %21 = trunc nuw nsw i64 %indvars.iv to i32
  %22 = add nsw i32 %.val34, %21
  %23 = sext i32 %22 to i64
  %24 = getelementptr inbounds ptr, ptr %.val33.val, i64 %23
  %25 = load ptr, ptr %24, align 8, !tbaa !26
  %.val35 = load ptr, ptr %16, align 8, !tbaa !22
  %.val36 = load i32, ptr %17, align 4, !tbaa !41
  %26 = getelementptr i8, ptr %.val35, i64 8
  %.val35.val = load ptr, ptr %26, align 8, !tbaa !25
  %27 = add nsw i32 %.val36, %21
  %28 = sext i32 %27 to i64
  %29 = getelementptr inbounds ptr, ptr %.val35.val, i64 %28
  %30 = load ptr, ptr %29, align 8, !tbaa !26
  %.val30 = load ptr, ptr %18, align 8, !tbaa !27
  %31 = getelementptr i8, ptr %25, i64 36
  %.val31 = load i32, ptr %31, align 4, !tbaa !29
  %32 = sext i32 %.val31 to i64
  %33 = getelementptr inbounds i32, ptr %.val30, i64 %32
  %34 = load i32, ptr %33, align 4, !tbaa !30
  %35 = tail call ptr @Cudd_bddIthVar(ptr noundef %0, i32 noundef %34) #18
  %36 = getelementptr inbounds nuw ptr, ptr %7, i64 %indvars.iv
  store ptr %35, ptr %36, align 8, !tbaa !67
  %.val = load ptr, ptr %18, align 8, !tbaa !27
  %37 = getelementptr i8, ptr %30, i64 36
  %.val29 = load i32, ptr %37, align 4, !tbaa !29
  %38 = sext i32 %.val29 to i64
  %39 = getelementptr inbounds i32, ptr %.val, i64 %38
  %40 = load i32, ptr %39, align 4, !tbaa !30
  %41 = tail call ptr @Cudd_bddIthVar(ptr noundef %0, i32 noundef %40) #18
  %42 = getelementptr inbounds nuw ptr, ptr %11, i64 %indvars.iv
  store ptr %41, ptr %42, align 8, !tbaa !67
  %indvars.iv.next = add nuw nsw i64 %indvars.iv, 1
  %.val32 = load i32, ptr %12, align 8, !tbaa !45
  %43 = sext i32 %.val32 to i64
  %44 = icmp slt i64 %indvars.iv.next, %43
  br i1 %44, label %19, label %.critedge.thread, !llvm.loop !69

.critedge.thread:                                 ; preds = %19
  %45 = tail call i32 @Cudd_SetVarMap(ptr noundef %0, ptr noundef nonnull %7, ptr noundef nonnull %11, i32 noundef %.val32) #18
  br label %47

.critedge:                                        ; preds = %3
  %46 = tail call i32 @Cudd_SetVarMap(ptr noundef %0, ptr noundef %7, ptr noundef %11, i32 noundef %.val3238) #18
  %.not = icmp eq ptr %7, null
  br i1 %.not, label %48, label %47

47:                                               ; preds = %.critedge.thread, %.critedge
  tail call void @free(ptr noundef nonnull %7) #18
  br label %48

48:                                               ; preds = %.critedge, %47
  %.not28 = icmp eq ptr %11, null
  br i1 %.not28, label %50, label %49

49:                                               ; preds = %48
  tail call void @free(ptr noundef nonnull %11) #18
  br label %50

50:                                               ; preds = %48, %49
  ret void
}